(dp1
S'files'
p2
(dp3
S'slides_forms'
p4
(dp5
S'index'
p6
(dp7
S'html_filename'
p8
S'slides_forms.html'
p9
sS'name'
p10
S'slides/forms'
p11
sS'nums'
p12
ccopy_reg
_reconstructor
p13
(ccoverage.results
Numbers
p14
c__builtin__
object
p15
NtRp16
(dp17
S'n_files'
p18
I1
sS'n_branches'
p19
I0
sS'n_statements'
p20
I34
sS'n_excluded'
p21
I0
sS'n_partial_branches'
p22
I0
sS'n_missing'
p23
I0
sS'n_missing_branches'
p24
I0
sbssS'hash'
p25
S'\x15K\x1b\x87\x8cC\x00\x9a\x07\xbe\xa5\xf3&-\x87-'
p26
ssS'manage'
p27
(dp28
g6
(dp29
S'html_filename'
p30
S'manage.html'
p31
sS'name'
p32
g27
sS'nums'
p33
g13
(g14
g15
NtRp34
(dp35
g18
I1
sg19
I0
sg20
I6
sg21
I0
sg22
I0
sg23
I0
sg24
I0
sbssg25
S'\xe3M\x16\xfd:\x11\x1a\xb0\x17\xf5i\xb7i\xf5\xd4n'
p36
ssS'slides___init__'
p37
(dp38
g6
(dp39
g30
S'slides___init__.html'
p40
sg32
S'slides/__init__'
p41
sg33
g13
(g14
g15
NtRp42
(dp43
g18
I1
sg19
I0
sg20
I0
sg21
I0
sg22
I0
sg23
I0
sg24
I0
sbssg25
S'\xca\xf5\x9f\x7f\x88\xdfa\x831|T\x1d\xbc}\xa5v'
p44
ssS'slides_management_commands___init__'
p45
(dp46
g6
(dp47
g30
S'slides_management_commands___init__.html'
p48
sg32
S'slides/management/commands/__init__'
p49
sg33
g13
(g14
g15
NtRp50
(dp51
g18
I1
sg19
I0
sg20
I1
sg21
I0
sg22
I0
sg23
I1
sg24
I0
sbssg25
S'\xc7\x04\xbf\x1b\xd6\xdby\xbd\xb4\xae\xf8\xa4\x10\xde}\xb2'
p52
ssS'local_settings'
p53
(dp54
g6
(dp55
g30
S'local_settings.html'
p56
sg32
g53
sg33
g13
(g14
g15
NtRp57
(dp58
g18
I1
sg19
I0
sg20
I4
sg21
I0
sg22
I0
sg23
I0
sg24
I0
sbssg25
S'\x02\xaeb\xb1\xa7x\xdf9\xad\xcd\xc8\x11\x9e\xf1SQ'
p59
ssS'slides_migrations_0001_initial'
p60
(dp61
g6
(dp62
g30
S'slides_migrations_0001_initial.html'
p63
sg32
S'slides/migrations/0001_initial'
p64
sg33
g13
(g14
g15
NtRp65
(dp66
g18
I1
sg19
I0
sg20
I8
sg21
I0
sg22
I0
sg23
I0
sg24
I0
sbssg25
S'\x92\x9b\x7fL8:\xf0\x80c\xc1\x1e\x08/\x81\x9aQ'
p67
ssS'lms_wsgi'
p68
(dp69
g6
(dp70
g30
S'lms_wsgi.html'
p71
sg32
S'lms/wsgi'
p72
sg33
g13
(g14
g15
NtRp73
(dp74
g18
I1
sg19
I0
sg20
I4
sg21
I0
sg22
I0
sg23
I4
sg24
I0
sbssg25
S'\x12\x0f\xd7\xfa>\x8f\xc0A&k\xfc\xd8\x82\x82\xd7\x18'
p75
ssS'slides_utils'
p76
(dp77
g6
(dp78
S'html_filename'
p79
S'slides_utils.html'
p80
sS'name'
p81
S'slides/utils'
p82
sS'nums'
p83
g13
(g14
g15
NtRp84
(dp85
g18
I1
sg19
I0
sg20
I57
sg21
I0
sg22
I0
sg23
I4
sg24
I0
sbssg25
S'\xac\x03)\x82\xdfs\x87N\x86\xc4\xd1\x92#8\x00\xb4'
p86
ssS'slides_migrations_0002_slide_topic'
p87
(dp88
g6
(dp89
g30
S'slides_migrations_0002_slide_topic.html'
p90
sg32
S'slides/migrations/0002_slide_topic'
p91
sg33
g13
(g14
g15
NtRp92
(dp93
g18
I1
sg19
I0
sg20
I5
sg21
I0
sg22
I0
sg23
I0
sg24
I0
sbssg25
S"\xa8\xc6\xee\xba'[v\x7f\x8ddv6\x17v>P"
p94
ssS'slides_management_commands_slide_command'
p95
(dp96
g6
(dp97
g30
S'slides_management_commands_slide_command.html'
p98
sg32
S'slides/management/commands/slide_command'
p99
sg33
g13
(g14
g15
NtRp100
(dp101
g18
I1
sg19
I0
sg20
I81
sg21
I0
sg22
I0
sg23
I81
sg24
I0
sbssg25
S'\xa8\xef\xd8\xf5\xf9\xafX\xaf\x8a\xaa\xa8X\xa4\x19\x81d'
p102
ssS'lms_urls'
p103
(dp104
g6
(dp105
g79
S'lms_urls.html'
p106
sg81
S'lms/urls'
p107
sg83
g13
(g14
g15
NtRp108
(dp109
g18
I1
sg19
I0
sg20
I10
sg21
I0
sg22
I0
sg23
I0
sg24
I0
sbssg25
S'"l\xe7\xff\xa7%\\\xc8\xc7K_\xc5`1\xe0\xc3'
p110
ssS'slides_tests_test_forms'
p111
(dp112
g6
(dp113
g8
S'slides_tests_test_forms.html'
p114
sg10
S'slides/tests/test_forms'
p115
sg12
g13
(g14
g15
NtRp116
(dp117
g18
I1
sg19
I0
sg20
I20
sg21
I0
sg22
I0
sg23
I0
sg24
I0
sbssg25
S'\xad\xaa\x10\xdf\xe4\xb0\x0e\xb6:s[\x90\xc8\xb2@F'
p118
ssS'slides_migrations___init__'
p119
(dp120
g6
(dp121
g30
S'slides_migrations___init__.html'
p122
sg32
S'slides/migrations/__init__'
p123
sg33
g13
(g14
g15
NtRp124
(dp125
g18
I1
sg19
I0
sg20
I0
sg21
I0
sg22
I0
sg23
I0
sg24
I0
sbssg25
S'\xca\xf5\x9f\x7f\x88\xdfa\x831|T\x1d\xbc}\xa5v'
p126
ssS'slides_management___init__'
p127
(dp128
g6
(dp129
g30
S'slides_management___init__.html'
p130
sg32
S'slides/management/__init__'
p131
sg33
g13
(g14
g15
NtRp132
(dp133
g18
I1
sg19
I0
sg20
I1
sg21
I0
sg22
I0
sg23
I0
sg24
I0
sbssg25
S'~;\xb1\x93\xcd\xfe\xbd\xbcYe\xdf\xd5\\V\x83\x9a'
p134
ssS'slides_tests___init__'
p135
(dp136
g6
(dp137
g30
S'slides_tests___init__.html'
p138
sg32
S'slides/tests/__init__'
p139
sg33
g13
(g14
g15
NtRp140
(dp141
g18
I1
sg19
I0
sg20
I0
sg21
I0
sg22
I0
sg23
I0
sg24
I0
sbssg25
S'\xca\xf5\x9f\x7f\x88\xdfa\x831|T\x1d\xbc}\xa5v'
p142
ssS'slides_tests_test_models'
p143
(dp144
g6
(dp145
g8
S'slides_tests_test_models.html'
p146
sg10
S'slides/tests/test_models'
p147
sg12
g13
(g14
g15
NtRp148
(dp149
g18
I1
sg19
I0
sg20
I29
sg21
I0
sg22
I0
sg23
I0
sg24
I0
sbssg25
S'\xaa^i\x1eZ\xa4|\xc5\xc1gE\xb3\xa5!\x0b\xac'
p150
ssS'slides_admin'
p151
(dp152
g6
(dp153
g30
S'slides_admin.html'
p154
sg32
S'slides/admin'
p155
sg33
g13
(g14
g15
NtRp156
(dp157
g18
I1
sg19
I0
sg20
I6
sg21
I0
sg22
I0
sg23
I0
sg24
I0
sbssg25
S'\x1f\xe8\x11q\xbbBh\xb5\x10\xe0\xde8\xb5\xe5\xa5L'
p158
ssS'slides_tests_test_views'
p159
(dp160
g6
(dp161
S'html_filename'
p162
S'slides_tests_test_views.html'
p163
sS'name'
p164
S'slides/tests/test_views'
p165
sS'nums'
p166
g13
(g14
g15
NtRp167
(dp168
g18
I1
sg19
I0
sg20
I52
sg21
I0
sg22
I0
sg23
I0
sg24
I0
sbssg25
S'e\x0cf\xab\x84\xfbK\xd4\xb6\xb2R\x83Z\xcd\xa1\x8e'
p169
ssS'lms_settings'
p170
(dp171
g6
(dp172
g30
S'lms_settings.html'
p173
sg32
S'lms/settings'
p174
sg33
g13
(g14
g15
NtRp175
(dp176
g18
I1
sg19
I0
sg20
I28
sg21
I0
sg22
I0
sg23
I2
sg24
I0
sbssg25
S'\xcc+\xf1\x91D\xfc\x81\x835\xac\xa1B\x91l \xb0'
p177
ssS'slides_models'
p178
(dp179
g6
(dp180
g79
S'slides_models.html'
p181
sg81
S'slides/models'
p182
sg83
g13
(g14
g15
NtRp183
(dp184
g18
I1
sg19
I0
sg20
I50
sg21
I0
sg22
I0
sg23
I0
sg24
I0
sbssg25
S'LF\x8d\xc5rT.(6tp\xb0\xd8\xbdY\x1f'
p185
ssS'slides_views'
p186
(dp187
g6
(dp188
g162
S'slides_views.html'
p189
sg164
S'slides/views'
p190
sg166
g13
(g14
g15
NtRp191
(dp192
g18
I1
sg19
I0
sg20
I149
sg21
I0
sg22
I0
sg23
I54
sg24
I0
sbssg25
S'\x87\xa8\x887\xd4RL\xc0\xba3\xda\xc2\x1e\xed`A'
p193
ssS'lms___init__'
p194
(dp195
g6
(dp196
g30
S'lms___init__.html'
p197
sg32
S'lms/__init__'
p198
sg33
g13
(g14
g15
NtRp199
(dp200
g18
I1
sg19
I0
sg20
I0
sg21
I0
sg22
I0
sg23
I0
sg24
I0
sbssg25
S'\xca\xf5\x9f\x7f\x88\xdfa\x831|T\x1d\xbc}\xa5v'
p201
ssS'slides_management_commands_sub_slide'
p202
(dp203
g6
(dp204
g30
S'slides_management_commands_sub_slide.html'
p205
sg32
S'slides/management/commands/sub_slide'
p206
sg33
g13
(g14
g15
NtRp207
(dp208
g18
I1
sg19
I0
sg20
I74
sg21
I0
sg22
I0
sg23
I74
sg24
I0
sbssg25
S'\x90\xf3-\xe6)v\x039\x94\x1a\xd1V\xe1\x8f\xae\x01'
p209
sssS'version'
p210
S'3.7.1'
p211
sS'settings'
p212
S'\x98\xa8x\xfe"r\xb5K\x98\xb1N\\\x99\x9e\xf3\xe5'
p213
sS'format'
p214
I1
s.