(dp1
S'files'
p2
(dp3
S'slides_forms'
p4
(dp5
S'index'
p6
(dp7
S'html_filename'
p8
S'slides_forms.html'
p9
sS'name'
p10
S'slides/forms'
p11
sS'nums'
p12
ccopy_reg
_reconstructor
p13
(ccoverage.results
Numbers
p14
c__builtin__
object
p15
NtRp16
(dp17
S'n_files'
p18
I1
sS'n_branches'
p19
I0
sS'n_statements'
p20
I34
sS'n_excluded'
p21
I0
sS'n_partial_branches'
p22
I0
sS'n_missing'
p23
I0
sS'n_missing_branches'
p24
I0
sbssS'hash'
p25
S'\x15K\x1b\x87\x8cC\x00\x9a\x07\xbe\xa5\xf3&-\x87-'
p26
ssS'manage'
p27
(dp28
g6
(dp29
S'html_filename'
p30
S'manage.html'
p31
sS'name'
p32
g27
sS'nums'
p33
g13
(g14
g15
NtRp34
(dp35
g18
I1
sg19
I0
sg20
I6
sg21
I0
sg22
I0
sg23
I0
sg24
I0
sbssg25
S'\xe3M\x16\xfd:\x11\x1a\xb0\x17\xf5i\xb7i\xf5\xd4n'
p36
ssS'slides_tests_test_forms'
p37
(dp38
g6
(dp39
g8
S'slides_tests_test_forms.html'
p40
sg10
S'slides/tests/test_forms'
p41
sg12
g13
(g14
g15
NtRp42
(dp43
g18
I1
sg19
I0
sg20
I20
sg21
I0
sg22
I0
sg23
I0
sg24
I0
sbssg25
S'\xad\xaa\x10\xdf\xe4\xb0\x0e\xb6:s[\x90\xc8\xb2@F'
p44
ssS'slides_migrations___init__'
p45
(dp46
g6
(dp47
g30
S'slides_migrations___init__.html'
p48
sg32
S'slides/migrations/__init__'
p49
sg33
g13
(g14
g15
NtRp50
(dp51
g18
I1
sg19
I0
sg20
I0
sg21
I0
sg22
I0
sg23
I0
sg24
I0
sbssg25
S'\xca\xf5\x9f\x7f\x88\xdfa\x831|T\x1d\xbc}\xa5v'
p52
ssS'local_settings'
p53
(dp54
g6
(dp55
g30
S'local_settings.html'
p56
sg32
g53
sg33
g13
(g14
g15
NtRp57
(dp58
g18
I1
sg19
I0
sg20
I4
sg21
I0
sg22
I0
sg23
I0
sg24
I0
sbssg25
S'\x02\xaeb\xb1\xa7x\xdf9\xad\xcd\xc8\x11\x9e\xf1SQ'
p59
ssS'slides_migrations_0001_initial'
p60
(dp61
g6
(dp62
g30
S'slides_migrations_0001_initial.html'
p63
sg32
S'slides/migrations/0001_initial'
p64
sg33
g13
(g14
g15
NtRp65
(dp66
g18
I1
sg19
I0
sg20
I8
sg21
I0
sg22
I0
sg23
I0
sg24
I0
sbssg25
S'\x92\x9b\x7fL8:\xf0\x80c\xc1\x1e\x08/\x81\x9aQ'
p67
ssS'lms_wsgi'
p68
(dp69
g6
(dp70
g30
S'lms_wsgi.html'
p71
sg32
S'lms/wsgi'
p72
sg33
g13
(g14
g15
NtRp73
(dp74
g18
I1
sg19
I0
sg20
I4
sg21
I0
sg22
I0
sg23
I4
sg24
I0
sbssg25
S'\x12\x0f\xd7\xfa>\x8f\xc0A&k\xfc\xd8\x82\x82\xd7\x18'
p75
ssS'slides_utils'
p76
(dp77
g6
(dp78
g30
S'slides_utils.html'
p79
sg32
S'slides/utils'
p80
sg33
g13
(g14
g15
NtRp81
(dp82
g18
I1
sg19
I0
sg20
I1
sg21
I0
sg22
I0
sg23
I1
sg24
I0
sbssg25
S'\xe8\x15\x14\xbcN\xe9\x98}G\x94\xd29\x80H.\xbb'
p83
ssS'slides_migrations_0002_slide_topic'
p84
(dp85
g6
(dp86
g30
S'slides_migrations_0002_slide_topic.html'
p87
sg32
S'slides/migrations/0002_slide_topic'
p88
sg33
g13
(g14
g15
NtRp89
(dp90
g18
I1
sg19
I0
sg20
I5
sg21
I0
sg22
I0
sg23
I0
sg24
I0
sbssg25
S"\xa8\xc6\xee\xba'[v\x7f\x8ddv6\x17v>P"
p91
ssS'slides_management_commands_slide_command'
p92
(dp93
g6
(dp94
g30
S'slides_management_commands_slide_command.html'
p95
sg32
S'slides/management/commands/slide_command'
p96
sg33
g13
(g14
g15
NtRp97
(dp98
g18
I1
sg19
I0
sg20
I81
sg21
I0
sg22
I0
sg23
I81
sg24
I0
sbssg25
S'\xa8\xef\xd8\xf5\xf9\xafX\xaf\x8a\xaa\xa8X\xa4\x19\x81d'
p99
ssS'lms_urls'
p100
(dp101
g6
(dp102
g30
S'lms_urls.html'
p103
sg32
S'lms/urls'
p104
sg33
g13
(g14
g15
NtRp105
(dp106
g18
I1
sg19
I0
sg20
I9
sg21
I0
sg22
I0
sg23
I0
sg24
I0
sbssg25
S'\x9cr3\xf8\xc8\xad\xb4]\x1b\xd0\xf2"g%\xcdj'
p107
ssS'slides___init__'
p108
(dp109
g6
(dp110
g30
S'slides___init__.html'
p111
sg32
S'slides/__init__'
p112
sg33
g13
(g14
g15
NtRp113
(dp114
g18
I1
sg19
I0
sg20
I0
sg21
I0
sg22
I0
sg23
I0
sg24
I0
sbssg25
S'\xca\xf5\x9f\x7f\x88\xdfa\x831|T\x1d\xbc}\xa5v'
p115
ssS'slides_management_commands___init__'
p116
(dp117
g6
(dp118
g30
S'slides_management_commands___init__.html'
p119
sg32
S'slides/management/commands/__init__'
p120
sg33
g13
(g14
g15
NtRp121
(dp122
g18
I1
sg19
I0
sg20
I1
sg21
I0
sg22
I0
sg23
I1
sg24
I0
sbssg25
S'\xc7\x04\xbf\x1b\xd6\xdby\xbd\xb4\xae\xf8\xa4\x10\xde}\xb2'
p123
ssS'slides_management___init__'
p124
(dp125
g6
(dp126
g30
S'slides_management___init__.html'
p127
sg32
S'slides/management/__init__'
p128
sg33
g13
(g14
g15
NtRp129
(dp130
g18
I1
sg19
I0
sg20
I1
sg21
I0
sg22
I0
sg23
I0
sg24
I0
sbssg25
S'~;\xb1\x93\xcd\xfe\xbd\xbcYe\xdf\xd5\\V\x83\x9a'
p131
ssS'slides_tests___init__'
p132
(dp133
g6
(dp134
g30
S'slides_tests___init__.html'
p135
sg32
S'slides/tests/__init__'
p136
sg33
g13
(g14
g15
NtRp137
(dp138
g18
I1
sg19
I0
sg20
I0
sg21
I0
sg22
I0
sg23
I0
sg24
I0
sbssg25
S'\xca\xf5\x9f\x7f\x88\xdfa\x831|T\x1d\xbc}\xa5v'
p139
ssS'slides_tests_test_models'
p140
(dp141
g6
(dp142
g8
S'slides_tests_test_models.html'
p143
sg10
S'slides/tests/test_models'
p144
sg12
g13
(g14
g15
NtRp145
(dp146
g18
I1
sg19
I0
sg20
I29
sg21
I0
sg22
I0
sg23
I0
sg24
I0
sbssg25
S'\xaa^i\x1eZ\xa4|\xc5\xc1gE\xb3\xa5!\x0b\xac'
p147
ssS'slides_admin'
p148
(dp149
g6
(dp150
g30
S'slides_admin.html'
p151
sg32
S'slides/admin'
p152
sg33
g13
(g14
g15
NtRp153
(dp154
g18
I1
sg19
I0
sg20
I6
sg21
I0
sg22
I0
sg23
I0
sg24
I0
sbssg25
S'\x1f\xe8\x11q\xbbBh\xb5\x10\xe0\xde8\xb5\xe5\xa5L'
p155
ssS'slides_tests_test_views'
p156
(dp157
g6
(dp158
g30
S'slides_tests_test_views.html'
p159
sg32
S'slides/tests/test_views'
p160
sg33
g13
(g14
g15
NtRp161
(dp162
g18
I1
sg19
I0
sg20
I0
sg21
I0
sg22
I0
sg23
I0
sg24
I0
sbssg25
S'+\xe4~&\xb4P\x13\xc9\xeb\xac\x98\xd6\x9c\x1bq\x9e'
p163
ssS'lms_settings'
p164
(dp165
g6
(dp166
g30
S'lms_settings.html'
p167
sg32
S'lms/settings'
p168
sg33
g13
(g14
g15
NtRp169
(dp170
g18
I1
sg19
I0
sg20
I28
sg21
I0
sg22
I0
sg23
I2
sg24
I0
sbssg25
S'\xcc+\xf1\x91D\xfc\x81\x835\xac\xa1B\x91l \xb0'
p171
ssS'slides_models'
p172
(dp173
g6
(dp174
g8
S'slides_models.html'
p175
sg10
S'slides/models'
p176
sg12
g13
(g14
g15
NtRp177
(dp178
g18
I1
sg19
I0
sg20
I50
sg21
I0
sg22
I0
sg23
I0
sg24
I0
sbssg25
S'GA\x881,\xdb3\xba\xde~\x08\xb8:\xdc\x85?'
p179
ssS'slides_views'
p180
(dp181
g6
(dp182
g30
S'slides_views.html'
p183
sg32
S'slides/views'
p184
sg33
g13
(g14
g15
NtRp185
(dp186
g18
I1
sg19
I0
sg20
I138
sg21
I0
sg22
I0
sg23
I115
sg24
I0
sbssg25
S"\x12\x06\xdcj\x05\xc2\xe5\x11n':\xbc\xc985\xbc"
p187
ssS'lms___init__'
p188
(dp189
g6
(dp190
g30
S'lms___init__.html'
p191
sg32
S'lms/__init__'
p192
sg33
g13
(g14
g15
NtRp193
(dp194
g18
I1
sg19
I0
sg20
I0
sg21
I0
sg22
I0
sg23
I0
sg24
I0
sbssg25
S'\xca\xf5\x9f\x7f\x88\xdfa\x831|T\x1d\xbc}\xa5v'
p195
ssS'slides_management_commands_sub_slide'
p196
(dp197
g6
(dp198
g30
S'slides_management_commands_sub_slide.html'
p199
sg32
S'slides/management/commands/sub_slide'
p200
sg33
g13
(g14
g15
NtRp201
(dp202
g18
I1
sg19
I0
sg20
I74
sg21
I0
sg22
I0
sg23
I74
sg24
I0
sbssg25
S'\x90\xf3-\xe6)v\x039\x94\x1a\xd1V\xe1\x8f\xae\x01'
p203
sssS'version'
p204
S'3.7.1'
p205
sS'settings'
p206
S'\x98\xa8x\xfe"r\xb5K\x98\xb1N\\\x99\x9e\xf3\xe5'
p207
sS'format'
p208
I1
s.